Vbody h1 {\u000a  font-family: 'Proxima Nova', 'Helvetica', Arial, sans-serif;\u000a  font-size: 2em;\u000a  font-weight: 500;\u000a  color: #555555;\u000a  text-align: center; }\u000a  body form input {\u000a    height: 50px; }\u000a
p1
.